; Function Attrs: mustprogress uwtable
define noundef ptr @uspoof_getAllowedLocales_75(ptr noundef %sc, ptr noundef nonnull %status) local_unnamed_addr #0 {
entry:
  %call = tail call noundef ptr @_ZN6icu_759SpoofImpl12validateThisEP13USpoofCheckerR10UErrorCode(ptr noundef %sc, ptr noundef nonnull align 4 dereferenceable(4) %status)
  %cmp = icmp eq ptr %call, null
  br i1 %cmp, label %return, label %if.end

if.end:                                           ; preds = %entry
  %call1 = tail call noundef ptr @_ZN6icu_759SpoofImpl17getAllowedLocalesER10UErrorCode(ptr noundef nonnull align 8 dereferenceable(44) %call, ptr noundef nonnull align 4 dereferenceable(4) %status)
  br label %return

return:                                           ; preds = %entry, %if.end
  %retval.0 = phi ptr [ %call1, %if.end ], [ null, %entry ]
  ret ptr %retval.0
}